; Function Attrs: nofree nounwind memory(readwrite, inaccessiblemem: none) uwtable
define internal fastcc ptr @next_arg(ptr noundef nonnull captures(none) %0) unnamed_addr #11 {
  %2 = load ptr, ptr %0, align 8, !tbaa !72
  %.not = icmp eq ptr %2, null
  br i1 %.not, label %29, label %.preheader40

.preheader40:                                     ; preds = %1
  %3 = load i8, ptr %2, align 1, !tbaa !26
  %4 = zext i8 %3 to i64
  %5 = getelementptr inbounds nuw [256 x i8], ptr @sane_ctype, i64 0, i64 %4
  %6 = load i8, ptr %5, align 1, !tbaa !26
  %7 = and i8 %6, 1
  %.not2642 = icmp eq i8 %7, 0
  br i1 %.not2642, label %._crit_edge, label %.lr.ph

.lr.ph:                                           ; preds = %.preheader40, %.lr.ph
  %8 = phi ptr [ %9, %.lr.ph ], [ %2, %.preheader40 ]
  %9 = getelementptr inbounds nuw i8, ptr %8, i64 1
  store ptr %9, ptr %0, align 8, !tbaa !72
  %10 = load i8, ptr %9, align 1, !tbaa !26
  %11 = zext i8 %10 to i64
  %12 = getelementptr inbounds nuw [256 x i8], ptr @sane_ctype, i64 0, i64 %11
  %13 = load i8, ptr %12, align 1, !tbaa !26
  %14 = and i8 %13, 1
  %.not26 = icmp eq i8 %14, 0
  br i1 %.not26, label %._crit_edge, label %.lr.ph, !llvm.loop !73

._crit_edge:                                      ; preds = %.lr.ph, %.preheader40
  %.promoted44 = phi ptr [ %2, %.preheader40 ], [ %9, %.lr.ph ]
  %15 = phi i8 [ %3, %.preheader40 ], [ %10, %.lr.ph ]
  switch i8 %15, label %.lr.ph46 [
    i8 0, label %.sink.split
    i8 34, label %.critedge
  ]

.lr.ph46:                                         ; preds = %._crit_edge, %21
  %16 = phi i8 [ %23, %21 ], [ %15, %._crit_edge ]
  %.pr = phi ptr [ %22, %21 ], [ %.promoted44, %._crit_edge ]
  %17 = zext i8 %16 to i64
  %18 = getelementptr inbounds nuw [256 x i8], ptr @sane_ctype, i64 0, i64 %17
  %19 = load i8, ptr %18, align 1, !tbaa !26
  %20 = and i8 %19, 1
  %.not29 = icmp eq i8 %20, 0
  br i1 %.not29, label %21, label %.critedge.thread

21:                                               ; preds = %.lr.ph46
  %22 = getelementptr inbounds nuw i8, ptr %.pr, i64 1
  store ptr %22, ptr %0, align 8, !tbaa !72
  %23 = load i8, ptr %22, align 1, !tbaa !26
  %.not28 = icmp eq i8 %23, 0
  br i1 %.not28, label %.sink.split, label %.lr.ph46, !llvm.loop !74

.critedge:                                        ; preds = %._crit_edge
  %24 = getelementptr inbounds nuw i8, ptr %.promoted44, i64 1
  store ptr %24, ptr %0, align 8, !tbaa !72
  %25 = tail call ptr @strchr(ptr noundef nonnull dereferenceable(1) %24, i32 noundef 34) #25
  store ptr %25, ptr %0, align 8, !tbaa !72
  %.not30 = icmp eq ptr %25, null
  br i1 %.not30, label %29, label %.critedge.thread

.critedge.thread:                                 ; preds = %.lr.ph46, %.critedge
  %.052 = phi ptr [ %24, %.critedge ], [ %.promoted44, %.lr.ph46 ]
  %26 = phi ptr [ %25, %.critedge ], [ %.pr, %.lr.ph46 ]
  %.pr36 = load i8, ptr %26, align 1, !tbaa !26
  %.not31 = icmp eq i8 %.pr36, 0
  br i1 %.not31, label %.sink.split, label %.thread

.thread:                                          ; preds = %.critedge.thread
  %27 = getelementptr inbounds nuw i8, ptr %26, i64 1
  store ptr %27, ptr %0, align 8, !tbaa !72
  store i8 0, ptr %26, align 1, !tbaa !26
  %.pre = load ptr, ptr %0, align 8, !tbaa !72
  %.pre49 = load i8, ptr %.pre, align 1, !tbaa !26
  %28 = icmp eq i8 %.pre49, 0
  br i1 %28, label %.sink.split, label %29

.sink.split:                                      ; preds = %21, %.thread, %.critedge.thread, %._crit_edge
  %.022.ph = phi ptr [ null, %._crit_edge ], [ %.052, %.thread ], [ %.052, %.critedge.thread ], [ %.promoted44, %21 ]
  store ptr null, ptr %0, align 8, !tbaa !72
  br label %29

29:                                               ; preds = %.sink.split, %.critedge, %.thread, %1
  %.022 = phi ptr [ null, %1 ], [ %.052, %.thread ], [ %24, %.critedge ], [ %.022.ph, %.sink.split ]
  ret ptr %.022
}